target datalayout = "e-m:e-p270:32:32-p271:32:32-p272:64:64-i64:64-i128:128-f80:128-n8:16:32:64-S128"
target triple = "x86_64-pc-linux-gnu"

%struct.cmsCIEXYZ = type { double, double, double }
%struct.cmsCIELab = type { double, double, double }

; Function Attrs: nounwind uwtable
define internal double @f_1(double noundef %0) #0 {
  %2 = alloca double, align 8
  %3 = alloca double, align 8
  %4 = alloca double, align 8
  store double %0, ptr %3, align 8
  store double 0x3FCA7B9611A7B961, ptr %4, align 8
  %5 = load double, ptr %3, align 8
  %6 = fcmp ole double %5, 0x3FCA7B9611A7B961
  br i1 %6, label %7, label %11

7:                                                ; preds = %1
  %8 = load double, ptr %3, align 8
  %9 = fsub double %8, 0x3FC1A7B9611A7B96
  %10 = fmul double 0x3FC07004DED20922, %9
  store double %10, ptr %2, align 8
  br label %17

11:                                               ; preds = %1
  %12 = load double, ptr %3, align 8
  %13 = load double, ptr %3, align 8
  %14 = fmul double %12, %13
  %15 = load double, ptr %3, align 8
  %16 = fmul double %14, %15
  store double %16, ptr %2, align 8
  br label %17

17:                                               ; preds = %11, %7
  %18 = load double, ptr %2, align 8
  ret double %18
}

; Function Attrs: nounwind uwtable
define hidden void @cmsLab2XYZ(ptr noundef %0, ptr noundef %1, ptr noundef %2) #0 {
  %4 = alloca ptr, align 8
  %5 = alloca ptr, align 8
  %6 = alloca ptr, align 8
  %7 = alloca double, align 8
  %8 = alloca double, align 8
  %9 = alloca double, align 8
  store ptr %0, ptr %4, align 8
  store ptr %1, ptr %5, align 8
  store ptr %2, ptr %6, align 8
  %10 = load ptr, ptr %4, align 8
  %11 = icmp eq ptr %10, null
  br i1 %11, label %12, label %14

12:                                               ; preds = %3
  %13 = call ptr @cmsD50_XYZ()
  store ptr %13, ptr %4, align 8
  br label %14

14:                                               ; preds = %12, %3
  %15 = load ptr, ptr %6, align 8
  %16 = getelementptr inbounds %struct.cmsCIELab, ptr %15, i32 0, i32 0
  %17 = load double, ptr %16, align 8
  %18 = fadd double %17, 1.600000e+01
  %19 = fdiv double %18, 1.160000e+02
  store double %19, ptr %8, align 8
  %20 = load double, ptr %8, align 8
  %21 = load ptr, ptr %6, align 8
  %22 = getelementptr inbounds %struct.cmsCIELab, ptr %21, i32 0, i32 1
  %23 = load double, ptr %22, align 8
  %24 = call double @llvm.fmuladd.f64(double 2.000000e-03, double %23, double %20)
  store double %24, ptr %7, align 8
  %25 = load double, ptr %8, align 8
  %26 = load ptr, ptr %6, align 8
  %27 = getelementptr inbounds %struct.cmsCIELab, ptr %26, i32 0, i32 2
  %28 = load double, ptr %27, align 8
  %29 = call double @llvm.fmuladd.f64(double -5.000000e-03, double %28, double %25)
  store double %29, ptr %9, align 8
  %30 = load double, ptr %7, align 8
  %31 = call double @f_1(double noundef %30)
  %32 = load ptr, ptr %4, align 8
  %33 = getelementptr inbounds %struct.cmsCIEXYZ, ptr %32, i32 0, i32 0
  %34 = load double, ptr %33, align 8
  %35 = fmul double %31, %34
  %36 = load ptr, ptr %5, align 8
  %37 = getelementptr inbounds %struct.cmsCIEXYZ, ptr %36, i32 0, i32 0
  store double %35, ptr %37, align 8
  %38 = load double, ptr %8, align 8
  %39 = call double @f_1(double noundef %38)
  %40 = load ptr, ptr %4, align 8
  %41 = getelementptr inbounds %struct.cmsCIEXYZ, ptr %40, i32 0, i32 1
  %42 = load double, ptr %41, align 8
  %43 = fmul double %39, %42
  %44 = load ptr, ptr %5, align 8
  %45 = getelementptr inbounds %struct.cmsCIEXYZ, ptr %44, i32 0, i32 1
  store double %43, ptr %45, align 8
  %46 = load double, ptr %9, align 8
  %47 = call double @f_1(double noundef %46)
  %48 = load ptr, ptr %4, align 8
  %49 = getelementptr inbounds %struct.cmsCIEXYZ, ptr %48, i32 0, i32 2
  %50 = load double, ptr %49, align 8
  %51 = fmul double %47, %50
  %52 = load ptr, ptr %5, align 8
  %53 = getelementptr inbounds %struct.cmsCIEXYZ, ptr %52, i32 0, i32 2
  store double %51, ptr %53, align 8
  ret void
}