; Function Attrs: nounwind uwtable
define hidden void @cmsLab2XYZ(ptr noundef readonly %0, ptr nocapture noundef writeonly %1, ptr nocapture noundef readonly %2) local_unnamed_addr #1 {
  %4 = icmp eq ptr %0, null
  br i1 %4, label %5, label %7

5:                                                ; preds = %3
  %6 = tail call ptr @cmsD50_XYZ() #10
  br label %7

7:                                                ; preds = %5, %3
  %.0 = phi ptr [ %6, %5 ], [ %0, %3 ]
  %8 = load double, ptr %2, align 8
  %9 = fadd double %8, 1.600000e+01
  %10 = fdiv double %9, 1.160000e+02
  %11 = getelementptr inbounds i8, ptr %2, i64 8
  %12 = load double, ptr %.0, align 8
  %13 = fcmp ugt double %10, 0x3FCA7B9611A7B961
  %14 = fadd double %10, 0xBFC1A7B9611A7B96
  %15 = fmul double %14, 0x3FC07004DED20922
  %16 = fmul double %10, %10
  %17 = fmul double %10, %16
  %.0.i16 = select i1 %13, double %17, double %15
  %18 = getelementptr inbounds i8, ptr %.0, i64 8
  %19 = getelementptr inbounds i8, ptr %1, i64 8
  %20 = load <2 x double>, ptr %11, align 8
  %21 = insertelement <2 x double> poison, double %10, i64 0
  %22 = shufflevector <2 x double> %21, <2 x double> poison, <2 x i32> zeroinitializer
  %23 = tail call <2 x double> @llvm.fmuladd.v2f64(<2 x double> %20, <2 x double> <double 2.000000e-03, double -5.000000e-03>, <2 x double> %22)
  %24 = extractelement <2 x double> %23, i64 0
  %25 = fadd double %24, 0xBFC1A7B9611A7B96
  %26 = fmul double %25, 0x3FC07004DED20922
  %27 = fmul <2 x double> %23, %23
  %28 = fmul <2 x double> %23, %27
  %29 = extractelement <2 x double> %28, i64 0
  %30 = fcmp ugt <2 x double> %23, <double 0x3FCA7B9611A7B961, double 0x3FCA7B9611A7B961>
  %31 = extractelement <2 x i1> %30, i64 0
  %.0.i = select i1 %31, double %29, double %26
  %32 = fmul double %12, %.0.i
  store double %32, ptr %1, align 8
  %33 = load double, ptr %18, align 8
  %34 = fmul double %.0.i16, %33
  store double %34, ptr %19, align 8
  %35 = extractelement <2 x double> %23, i64 1
  %36 = fadd double %35, 0xBFC1A7B9611A7B96
  %37 = fmul double %36, 0x3FC07004DED20922
  %38 = fmul double %35, %35
  %39 = fmul double %35, %38
  %40 = extractelement <2 x i1> %30, i64 1
  %.0.i17 = select i1 %40, double %39, double %37
  %41 = getelementptr inbounds i8, ptr %.0, i64 16
  %42 = load double, ptr %41, align 8
  %43 = fmul double %.0.i17, %42
  %44 = getelementptr inbounds i8, ptr %1, i64 16
  store double %43, ptr %44, align 8
  ret void
}